target datalayout = "e-m:e-p270:32:32-p271:32:32-p272:64:64-i64:64-i128:128-f80:128-n8:16:32:64-S128"
target triple = "x86_64-pc-linux-gnu"

%struct.AVFormatContext = type { ptr, ptr, ptr, ptr, ptr, i32, i32, ptr, i32, ptr, i32, ptr, ptr, i64, i64, i64, i32, i32, i32, i64, i64, ptr, i32, i32, ptr, i32, i32, i32, i32, ptr, i64, i32, i32, %struct.AVIOInterruptCB, i32, i32, i32, i32, i64, i32, i32, i32, i32, i32, i32, i32, i32, i32, i32, i32, i32, i64, i32, i32, i32, i32, i32, ptr, ptr, ptr, ptr, i32, ptr, ptr, ptr, ptr, i32, ptr, ptr, i64, ptr, ptr, ptr, i64 }
%struct.AVIOInterruptCB = type { ptr, ptr }
%struct.AVStream = type { ptr, i32, i32, ptr, ptr, %struct.AVRational, i64, i64, i64, i32, i32, %struct.AVRational, ptr, %struct.AVRational, %struct.AVPacket, i32, %struct.AVRational, i32 }
%struct.AVPacket = type { ptr, i64, i64, ptr, i32, i32, i32, ptr, i32, i64, i64, ptr, ptr, %struct.AVRational }
%struct.AVRational = type { i32, i32 }
%struct.StreamInfo = type { ptr, i8, i32, i32, ptr, ptr, ptr, i32, [3 x i8], i32, i32, i32, i64 }
%struct.PacketDesc = type { i64, i64, i32, i32, ptr }

; Function Attrs: nounwind uwtable
define internal void @mpeg_mux_deinit(ptr noundef %0) #1 {
  %2 = alloca ptr, align 8
  %3 = alloca i32, align 4
  %4 = alloca i32, align 4
  %5 = alloca ptr, align 8
  %6 = alloca ptr, align 8
  %7 = alloca ptr, align 8
  store ptr %0, ptr %2, align 8, !tbaa !4
  call void @llvm.lifetime.start.p0(i64 4, ptr %3) #9
  store i32 0, ptr %3, align 4, !tbaa !42
  br label %8

8:                                                ; preds = %48, %1
  %9 = load i32, ptr %3, align 4, !tbaa !42
  %10 = load ptr, ptr %2, align 8, !tbaa !4
  %11 = getelementptr inbounds nuw %struct.AVFormatContext, ptr %10, i32 0, i32 6
  %12 = load i32, ptr %11, align 4, !tbaa !43
  %13 = icmp ult i32 %9, %12
  br i1 %13, label %15, label %14

14:                                               ; preds = %8
  store i32 2, ptr %4, align 4
  call void @llvm.lifetime.end.p0(i64 4, ptr %3) #9
  br label %51

15:                                               ; preds = %8
  call void @llvm.lifetime.start.p0(i64 8, ptr %5) #9
  %16 = load ptr, ptr %2, align 8, !tbaa !4
  %17 = getelementptr inbounds nuw %struct.AVFormatContext, ptr %16, i32 0, i32 7
  %18 = load ptr, ptr %17, align 8, !tbaa !44
  %19 = load i32, ptr %3, align 4, !tbaa !42
  %20 = sext i32 %19 to i64
  %21 = getelementptr inbounds ptr, ptr %18, i64 %20
  %22 = load ptr, ptr %21, align 8, !tbaa !45
  %23 = getelementptr inbounds nuw %struct.AVStream, ptr %22, i32 0, i32 4
  %24 = load ptr, ptr %23, align 8, !tbaa !49
  store ptr %24, ptr %5, align 8, !tbaa !47
  %25 = load ptr, ptr %5, align 8, !tbaa !47
  %26 = icmp ne ptr %25, null
  br i1 %26, label %28, label %27

27:                                               ; preds = %15
  store i32 4, ptr %4, align 4
  br label %45

28:                                               ; preds = %15
  call void @llvm.lifetime.start.p0(i64 8, ptr %6) #9
  %29 = load ptr, ptr %5, align 8, !tbaa !47
  %30 = getelementptr inbounds nuw %struct.StreamInfo, ptr %29, i32 0, i32 4
  %31 = load ptr, ptr %30, align 8, !tbaa !109
  store ptr %31, ptr %6, align 8, !tbaa !108
  br label %32

32:                                               ; preds = %36, %28
  %33 = load ptr, ptr %6, align 8, !tbaa !108
  %34 = icmp ne ptr %33, null
  br i1 %34, label %36, label %35

35:                                               ; preds = %32
  store i32 5, ptr %4, align 4
  call void @llvm.lifetime.end.p0(i64 8, ptr %6) #9
  br label %42

36:                                               ; preds = %32
  call void @llvm.lifetime.start.p0(i64 8, ptr %7) #9
  %37 = load ptr, ptr %6, align 8, !tbaa !108
  %38 = getelementptr inbounds nuw %struct.PacketDesc, ptr %37, i32 0, i32 4
  %39 = load ptr, ptr %38, align 8, !tbaa !111
  store ptr %39, ptr %7, align 8, !tbaa !108
  %40 = load ptr, ptr %6, align 8, !tbaa !108
  call void @av_free(ptr noundef %40)
  %41 = load ptr, ptr %7, align 8, !tbaa !108
  store ptr %41, ptr %6, align 8, !tbaa !108
  call void @llvm.lifetime.end.p0(i64 8, ptr %7) #9
  br label %32, !llvm.loop !122

42:                                               ; preds = %35
  %43 = load ptr, ptr %5, align 8, !tbaa !47
  %44 = getelementptr inbounds nuw %struct.StreamInfo, ptr %43, i32 0, i32 0
  call void @av_fifo_freep2(ptr noundef %44)
  store i32 0, ptr %4, align 4
  br label %45

45:                                               ; preds = %42, %27
  call void @llvm.lifetime.end.p0(i64 8, ptr %5) #9
  %46 = load i32, ptr %4, align 4
  switch i32 %46, label %52 [
    i32 0, label %47
    i32 4, label %48
  ]

47:                                               ; preds = %45
  br label %48

48:                                               ; preds = %47, %45
  %49 = load i32, ptr %3, align 4, !tbaa !42
  %50 = add nsw i32 %49, 1
  store i32 %50, ptr %3, align 4, !tbaa !42
  br label %8, !llvm.loop !123

51:                                               ; preds = %14
  ret void

52:                                               ; preds = %45
  unreachable
}