; Function Attrs: nounwind uwtable
define internal void @mpeg_mux_deinit(ptr noundef readonly captures(none) %0) #1 {
  %2 = getelementptr inbounds nuw i8, ptr %0, i64 44
  %3 = load i32, ptr %2, align 4, !tbaa !36
  %.not20 = icmp eq i32 %3, 0
  br i1 %.not20, label %._crit_edge19, label %.lr.ph18

.lr.ph18:                                         ; preds = %1
  %4 = getelementptr inbounds nuw i8, ptr %0, i64 48
  br label %5

._crit_edge19:                                    ; preds = %17, %1
  ret void

5:                                                ; preds = %.lr.ph18, %17
  %6 = phi i32 [ %3, %.lr.ph18 ], [ %18, %17 ]
  %indvars.iv = phi i64 [ 0, %.lr.ph18 ], [ %indvars.iv.next, %17 ]
  %7 = load ptr, ptr %4, align 8, !tbaa !37
  %8 = getelementptr inbounds nuw ptr, ptr %7, i64 %indvars.iv
  %9 = load ptr, ptr %8, align 8, !tbaa !38
  %10 = getelementptr inbounds nuw i8, ptr %9, i64 24
  %11 = load ptr, ptr %10, align 8, !tbaa !40
  %.not = icmp eq ptr %11, null
  br i1 %.not, label %17, label %12

12:                                               ; preds = %5
  %13 = getelementptr inbounds nuw i8, ptr %11, i64 24
  %14 = load ptr, ptr %13, align 8, !tbaa !94
  %.not1314 = icmp eq ptr %14, null
  br i1 %.not1314, label %._crit_edge, label %.lr.ph

._crit_edge:                                      ; preds = %.lr.ph, %12
  tail call void @av_fifo_freep2(ptr noundef nonnull %11) #8
  %.pre = load i32, ptr %2, align 4, !tbaa !36
  br label %17

.lr.ph:                                           ; preds = %12, %.lr.ph
  %.01115 = phi ptr [ %16, %.lr.ph ], [ %14, %12 ]
  %15 = getelementptr inbounds nuw i8, ptr %.01115, i64 24
  %16 = load ptr, ptr %15, align 8, !tbaa !96
  tail call void @av_free(ptr noundef nonnull %.01115) #8
  %.not13 = icmp eq ptr %16, null
  br i1 %.not13, label %._crit_edge, label %.lr.ph, !llvm.loop !107

17:                                               ; preds = %5, %._crit_edge
  %18 = phi i32 [ %6, %5 ], [ %.pre, %._crit_edge ]
  %indvars.iv.next = add nuw nsw i64 %indvars.iv, 1
  %19 = zext i32 %18 to i64
  %20 = icmp samesign ult i64 %indvars.iv.next, %19
  br i1 %20, label %5, label %._crit_edge19, !llvm.loop !108
}